target datalayout = "e-m:e-p270:32:32-p271:32:32-p272:64:64-i64:64-i128:128-f80:128-n8:16:32:64-S128"
target triple = "x86_64-pc-linux-gnu"

%struct.Elf32_Ehdr = type { [16 x i8], i16, i16, i32, i32, i32, i32, i32, i16, i16, i16, i16, i16, i16 }
%struct.Elf32_Shdr = type { i32, i32, i32, i32, i32, i32, i32, i32, i32, i32 }
%struct.Elf32_Phdr = type { i32, i32, i32, i32, i32, i32, i32, i32 }

; Function Attrs: nounwind uwtable
define internal void @elf32_bswap_shdr(ptr noundef %0) #0 {
  %2 = alloca ptr, align 8
  store ptr %0, ptr %2, align 8, !tbaa !24
  %3 = load ptr, ptr %2, align 8, !tbaa !24
  %4 = getelementptr inbounds nuw %struct.Elf32_Shdr, ptr %3, i32 0, i32 0
  %5 = load i32, ptr %4, align 4, !tbaa !96
  %6 = call i32 @llvm.bswap.i32(i32 %5)
  %7 = load ptr, ptr %2, align 8, !tbaa !24
  %8 = getelementptr inbounds nuw %struct.Elf32_Shdr, ptr %7, i32 0, i32 0
  store i32 %6, ptr %8, align 4, !tbaa !96
  %9 = load ptr, ptr %2, align 8, !tbaa !24
  %10 = getelementptr inbounds nuw %struct.Elf32_Shdr, ptr %9, i32 0, i32 1
  %11 = load i32, ptr %10, align 4, !tbaa !31
  %12 = call i32 @llvm.bswap.i32(i32 %11)
  %13 = load ptr, ptr %2, align 8, !tbaa !24
  %14 = getelementptr inbounds nuw %struct.Elf32_Shdr, ptr %13, i32 0, i32 1
  store i32 %12, ptr %14, align 4, !tbaa !31
  %15 = load ptr, ptr %2, align 8, !tbaa !24
  %16 = getelementptr inbounds nuw %struct.Elf32_Shdr, ptr %15, i32 0, i32 2
  %17 = load i32, ptr %16, align 4, !tbaa !97
  %18 = call i32 @llvm.bswap.i32(i32 %17)
  %19 = load ptr, ptr %2, align 8, !tbaa !24
  %20 = getelementptr inbounds nuw %struct.Elf32_Shdr, ptr %19, i32 0, i32 2
  store i32 %18, ptr %20, align 4, !tbaa !97
  %21 = load ptr, ptr %2, align 8, !tbaa !24
  %22 = getelementptr inbounds nuw %struct.Elf32_Shdr, ptr %21, i32 0, i32 3
  %23 = load i32, ptr %22, align 4, !tbaa !98
  %24 = call i32 @llvm.bswap.i32(i32 %23)
  %25 = load ptr, ptr %2, align 8, !tbaa !24
  %26 = getelementptr inbounds nuw %struct.Elf32_Shdr, ptr %25, i32 0, i32 3
  store i32 %24, ptr %26, align 4, !tbaa !98
  %27 = load ptr, ptr %2, align 8, !tbaa !24
  %28 = getelementptr inbounds nuw %struct.Elf32_Shdr, ptr %27, i32 0, i32 4
  %29 = load i32, ptr %28, align 4, !tbaa !49
  %30 = call i32 @llvm.bswap.i32(i32 %29)
  %31 = load ptr, ptr %2, align 8, !tbaa !24
  %32 = getelementptr inbounds nuw %struct.Elf32_Shdr, ptr %31, i32 0, i32 4
  store i32 %30, ptr %32, align 4, !tbaa !49
  %33 = load ptr, ptr %2, align 8, !tbaa !24
  %34 = getelementptr inbounds nuw %struct.Elf32_Shdr, ptr %33, i32 0, i32 5
  %35 = load i32, ptr %34, align 4, !tbaa !50
  %36 = call i32 @llvm.bswap.i32(i32 %35)
  %37 = load ptr, ptr %2, align 8, !tbaa !24
  %38 = getelementptr inbounds nuw %struct.Elf32_Shdr, ptr %37, i32 0, i32 5
  store i32 %36, ptr %38, align 4, !tbaa !50
  %39 = load ptr, ptr %2, align 8, !tbaa !24
  %40 = getelementptr inbounds nuw %struct.Elf32_Shdr, ptr %39, i32 0, i32 6
  %41 = load i32, ptr %40, align 4, !tbaa !89
  %42 = call i32 @llvm.bswap.i32(i32 %41)
  %43 = load ptr, ptr %2, align 8, !tbaa !24
  %44 = getelementptr inbounds nuw %struct.Elf32_Shdr, ptr %43, i32 0, i32 6
  store i32 %42, ptr %44, align 4, !tbaa !89
  %45 = load ptr, ptr %2, align 8, !tbaa !24
  %46 = getelementptr inbounds nuw %struct.Elf32_Shdr, ptr %45, i32 0, i32 7
  %47 = load i32, ptr %46, align 4, !tbaa !99
  %48 = call i32 @llvm.bswap.i32(i32 %47)
  %49 = load ptr, ptr %2, align 8, !tbaa !24
  %50 = getelementptr inbounds nuw %struct.Elf32_Shdr, ptr %49, i32 0, i32 7
  store i32 %48, ptr %50, align 4, !tbaa !99
  %51 = load ptr, ptr %2, align 8, !tbaa !24
  %52 = getelementptr inbounds nuw %struct.Elf32_Shdr, ptr %51, i32 0, i32 8
  %53 = load i32, ptr %52, align 4, !tbaa !100
  %54 = call i32 @llvm.bswap.i32(i32 %53)
  %55 = load ptr, ptr %2, align 8, !tbaa !24
  %56 = getelementptr inbounds nuw %struct.Elf32_Shdr, ptr %55, i32 0, i32 8
  store i32 %54, ptr %56, align 4, !tbaa !100
  %57 = load ptr, ptr %2, align 8, !tbaa !24
  %58 = getelementptr inbounds nuw %struct.Elf32_Shdr, ptr %57, i32 0, i32 9
  %59 = load i32, ptr %58, align 4, !tbaa !101
  %60 = call i32 @llvm.bswap.i32(i32 %59)
  %61 = load ptr, ptr %2, align 8, !tbaa !24
  %62 = getelementptr inbounds nuw %struct.Elf32_Shdr, ptr %61, i32 0, i32 9
  store i32 %60, ptr %62, align 4, !tbaa !101
  ret void
}

; Function Attrs: nounwind uwtable
define internal void @elf32_bswap_phdr(ptr noundef %0) #0 {
  %2 = alloca ptr, align 8
  store ptr %0, ptr %2, align 8, !tbaa !24
  %3 = load ptr, ptr %2, align 8, !tbaa !24
  %4 = getelementptr inbounds nuw %struct.Elf32_Phdr, ptr %3, i32 0, i32 0
  %5 = load i32, ptr %4, align 4, !tbaa !34
  %6 = call i32 @llvm.bswap.i32(i32 %5)
  %7 = load ptr, ptr %2, align 8, !tbaa !24
  %8 = getelementptr inbounds nuw %struct.Elf32_Phdr, ptr %7, i32 0, i32 0
  store i32 %6, ptr %8, align 4, !tbaa !34
  %9 = load ptr, ptr %2, align 8, !tbaa !24
  %10 = getelementptr inbounds nuw %struct.Elf32_Phdr, ptr %9, i32 0, i32 6
  %11 = load i32, ptr %10, align 4, !tbaa !40
  %12 = call i32 @llvm.bswap.i32(i32 %11)
  %13 = load ptr, ptr %2, align 8, !tbaa !24
  %14 = getelementptr inbounds nuw %struct.Elf32_Phdr, ptr %13, i32 0, i32 6
  store i32 %12, ptr %14, align 4, !tbaa !40
  %15 = load ptr, ptr %2, align 8, !tbaa !24
  %16 = getelementptr inbounds nuw %struct.Elf32_Phdr, ptr %15, i32 0, i32 1
  %17 = load i32, ptr %16, align 4, !tbaa !36
  %18 = call i32 @llvm.bswap.i32(i32 %17)
  %19 = load ptr, ptr %2, align 8, !tbaa !24
  %20 = getelementptr inbounds nuw %struct.Elf32_Phdr, ptr %19, i32 0, i32 1
  store i32 %18, ptr %20, align 4, !tbaa !36
  %21 = load ptr, ptr %2, align 8, !tbaa !24
  %22 = getelementptr inbounds nuw %struct.Elf32_Phdr, ptr %21, i32 0, i32 2
  %23 = load i32, ptr %22, align 4, !tbaa !37
  %24 = call i32 @llvm.bswap.i32(i32 %23)
  %25 = load ptr, ptr %2, align 8, !tbaa !24
  %26 = getelementptr inbounds nuw %struct.Elf32_Phdr, ptr %25, i32 0, i32 2
  store i32 %24, ptr %26, align 4, !tbaa !37
  %27 = load ptr, ptr %2, align 8, !tbaa !24
  %28 = getelementptr inbounds nuw %struct.Elf32_Phdr, ptr %27, i32 0, i32 3
  %29 = load i32, ptr %28, align 4, !tbaa !94
  %30 = call i32 @llvm.bswap.i32(i32 %29)
  %31 = load ptr, ptr %2, align 8, !tbaa !24
  %32 = getelementptr inbounds nuw %struct.Elf32_Phdr, ptr %31, i32 0, i32 3
  store i32 %30, ptr %32, align 4, !tbaa !94
  %33 = load ptr, ptr %2, align 8, !tbaa !24
  %34 = getelementptr inbounds nuw %struct.Elf32_Phdr, ptr %33, i32 0, i32 4
  %35 = load i32, ptr %34, align 4, !tbaa !38
  %36 = call i32 @llvm.bswap.i32(i32 %35)
  %37 = load ptr, ptr %2, align 8, !tbaa !24
  %38 = getelementptr inbounds nuw %struct.Elf32_Phdr, ptr %37, i32 0, i32 4
  store i32 %36, ptr %38, align 4, !tbaa !38
  %39 = load ptr, ptr %2, align 8, !tbaa !24
  %40 = getelementptr inbounds nuw %struct.Elf32_Phdr, ptr %39, i32 0, i32 5
  %41 = load i32, ptr %40, align 4, !tbaa !39
  %42 = call i32 @llvm.bswap.i32(i32 %41)
  %43 = load ptr, ptr %2, align 8, !tbaa !24
  %44 = getelementptr inbounds nuw %struct.Elf32_Phdr, ptr %43, i32 0, i32 5
  store i32 %42, ptr %44, align 4, !tbaa !39
  %45 = load ptr, ptr %2, align 8, !tbaa !24
  %46 = getelementptr inbounds nuw %struct.Elf32_Phdr, ptr %45, i32 0, i32 7
  %47 = load i32, ptr %46, align 4, !tbaa !95
  %48 = call i32 @llvm.bswap.i32(i32 %47)
  %49 = load ptr, ptr %2, align 8, !tbaa !24
  %50 = getelementptr inbounds nuw %struct.Elf32_Phdr, ptr %49, i32 0, i32 7
  store i32 %48, ptr %50, align 4, !tbaa !95
  ret void
}

; Function Attrs: nounwind uwtable
define internal void @elf32_bswap_ps_hdrs(ptr noundef %0) #0 {
  %2 = alloca ptr, align 8
  %3 = alloca ptr, align 8
  %4 = alloca ptr, align 8
  %5 = alloca i16, align 2
  store ptr %0, ptr %2, align 8, !tbaa !24
  call void @llvm.lifetime.start.p0(i64 8, ptr %3) #10
  %6 = load ptr, ptr %2, align 8, !tbaa !24
  %7 = load ptr, ptr %2, align 8, !tbaa !24
  %8 = getelementptr inbounds nuw %struct.Elf32_Ehdr, ptr %7, i32 0, i32 5
  %9 = load i32, ptr %8, align 4, !tbaa !28
  %10 = zext i32 %9 to i64
  %11 = getelementptr inbounds nuw i8, ptr %6, i64 %10
  store ptr %11, ptr %3, align 8, !tbaa !24
  call void @llvm.lifetime.start.p0(i64 8, ptr %4) #10
  %12 = load ptr, ptr %2, align 8, !tbaa !24
  %13 = load ptr, ptr %2, align 8, !tbaa !24
  %14 = getelementptr inbounds nuw %struct.Elf32_Ehdr, ptr %13, i32 0, i32 6
  %15 = load i32, ptr %14, align 4, !tbaa !30
  %16 = zext i32 %15 to i64
  %17 = getelementptr inbounds nuw i8, ptr %12, i64 %16
  store ptr %17, ptr %4, align 8, !tbaa !24
  call void @llvm.lifetime.start.p0(i64 2, ptr %5) #10
  store i16 0, ptr %5, align 2, !tbaa !86
  br label %18

18:                                               ; preds = %31, %1
  %19 = load i16, ptr %5, align 2, !tbaa !86
  %20 = zext i16 %19 to i32
  %21 = load ptr, ptr %2, align 8, !tbaa !24
  %22 = getelementptr inbounds nuw %struct.Elf32_Ehdr, ptr %21, i32 0, i32 10
  %23 = load i16, ptr %22, align 4, !tbaa !25
  %24 = zext i16 %23 to i32
  %25 = icmp slt i32 %20, %24
  br i1 %25, label %26, label %34

26:                                               ; preds = %18
  %27 = load ptr, ptr %3, align 8, !tbaa !24
  %28 = load i16, ptr %5, align 2, !tbaa !86
  %29 = zext i16 %28 to i64
  %30 = getelementptr inbounds nuw %struct.Elf32_Phdr, ptr %27, i64 %29
  call void @elf32_bswap_phdr(ptr noundef %30)
  br label %31

31:                                               ; preds = %26
  %32 = load i16, ptr %5, align 2, !tbaa !86
  %33 = add i16 %32, 1
  store i16 %33, ptr %5, align 2, !tbaa !86
  br label %18, !llvm.loop !87

34:                                               ; preds = %18
  store i16 0, ptr %5, align 2, !tbaa !86
  br label %35

35:                                               ; preds = %48, %34
  %36 = load i16, ptr %5, align 2, !tbaa !86
  %37 = zext i16 %36 to i32
  %38 = load ptr, ptr %2, align 8, !tbaa !24
  %39 = getelementptr inbounds nuw %struct.Elf32_Ehdr, ptr %38, i32 0, i32 12
  %40 = load i16, ptr %39, align 4, !tbaa !29
  %41 = zext i16 %40 to i32
  %42 = icmp slt i32 %37, %41
  br i1 %42, label %43, label %51

43:                                               ; preds = %35
  %44 = load ptr, ptr %4, align 8, !tbaa !24
  %45 = load i16, ptr %5, align 2, !tbaa !86
  %46 = zext i16 %45 to i64
  %47 = getelementptr inbounds nuw %struct.Elf32_Shdr, ptr %44, i64 %46
  call void @elf32_bswap_shdr(ptr noundef %47)
  br label %48

48:                                               ; preds = %43
  %49 = load i16, ptr %5, align 2, !tbaa !86
  %50 = add i16 %49, 1
  store i16 %50, ptr %5, align 2, !tbaa !86
  br label %35, !llvm.loop !88

51:                                               ; preds = %35
  call void @llvm.lifetime.end.p0(i64 2, ptr %5) #10
  call void @llvm.lifetime.end.p0(i64 8, ptr %4) #10
  call void @llvm.lifetime.end.p0(i64 8, ptr %3) #10
  ret void
}