; Function Attrs: nofree norecurse nosync nounwind memory(argmem: readwrite) uwtable
define internal fastcc void @elf32_bswap_ps_hdrs(ptr noundef nonnull captures(none) %0) unnamed_addr #5 {
  %2 = getelementptr inbounds nuw i8, ptr %0, i64 28
  %3 = load i32, ptr %2, align 4, !tbaa !20
  %4 = zext i32 %3 to i64
  %5 = getelementptr inbounds nuw i8, ptr %0, i64 %4
  %6 = getelementptr inbounds nuw i8, ptr %0, i64 32
  %7 = load i32, ptr %6, align 4, !tbaa !21
  %8 = zext i32 %7 to i64
  %9 = getelementptr inbounds nuw i8, ptr %0, i64 %8
  %10 = getelementptr inbounds nuw i8, ptr %0, i64 44
  %11 = load i16, ptr %10, align 4, !tbaa !25
  %.not = icmp eq i16 %11, 0
  br i1 %.not, label %.preheader, label %.lr.ph.preheader

.lr.ph.preheader:                                 ; preds = %1
  %wide.trip.count = zext i16 %11 to i64
  br label %.lr.ph

.preheader:                                       ; preds = %.lr.ph, %1
  %12 = getelementptr inbounds nuw i8, ptr %0, i64 48
  %13 = load i16, ptr %12, align 4, !tbaa !27
  %.not16 = icmp eq i16 %13, 0
  br i1 %.not16, label %._crit_edge, label %.lr.ph15.preheader

.lr.ph15.preheader:                               ; preds = %.preheader
  %wide.trip.count21 = zext i16 %13 to i64
  br label %.lr.ph15

.lr.ph:                                           ; preds = %.lr.ph.preheader, %.lr.ph
  %indvars.iv = phi i64 [ 0, %.lr.ph.preheader ], [ %indvars.iv.next, %.lr.ph ]
  %14 = getelementptr inbounds nuw %struct.Elf32_Phdr, ptr %5, i64 %indvars.iv
  %15 = load i32, ptr %14, align 4, !tbaa !33
  %16 = tail call i32 @llvm.bswap.i32(i32 %15)
  store i32 %16, ptr %14, align 4, !tbaa !33
  %17 = getelementptr inbounds nuw i8, ptr %14, i64 24
  %18 = load i32, ptr %17, align 4, !tbaa !39
  %19 = tail call i32 @llvm.bswap.i32(i32 %18)
  store i32 %19, ptr %17, align 4, !tbaa !39
  %20 = getelementptr inbounds nuw i8, ptr %14, i64 4
  %21 = load i32, ptr %20, align 4, !tbaa !35
  %22 = tail call i32 @llvm.bswap.i32(i32 %21)
  store i32 %22, ptr %20, align 4, !tbaa !35
  %23 = getelementptr inbounds nuw i8, ptr %14, i64 8
  %24 = load i32, ptr %23, align 4, !tbaa !36
  %25 = tail call i32 @llvm.bswap.i32(i32 %24)
  store i32 %25, ptr %23, align 4, !tbaa !36
  %26 = getelementptr inbounds nuw i8, ptr %14, i64 12
  %27 = load i32, ptr %26, align 4, !tbaa !83
  %28 = tail call i32 @llvm.bswap.i32(i32 %27)
  store i32 %28, ptr %26, align 4, !tbaa !83
  %29 = getelementptr inbounds nuw i8, ptr %14, i64 16
  %30 = load i32, ptr %29, align 4, !tbaa !37
  %31 = tail call i32 @llvm.bswap.i32(i32 %30)
  store i32 %31, ptr %29, align 4, !tbaa !37
  %32 = getelementptr inbounds nuw i8, ptr %14, i64 20
  %33 = load i32, ptr %32, align 4, !tbaa !38
  %34 = tail call i32 @llvm.bswap.i32(i32 %33)
  store i32 %34, ptr %32, align 4, !tbaa !38
  %35 = getelementptr inbounds nuw i8, ptr %14, i64 28
  %36 = load i32, ptr %35, align 4, !tbaa !84
  %37 = tail call i32 @llvm.bswap.i32(i32 %36)
  store i32 %37, ptr %35, align 4, !tbaa !84
  %indvars.iv.next = add nuw nsw i64 %indvars.iv, 1
  %exitcond.not = icmp eq i64 %indvars.iv.next, %wide.trip.count
  br i1 %exitcond.not, label %.preheader, label %.lr.ph, !llvm.loop !85

.lr.ph15:                                         ; preds = %.lr.ph15.preheader, %.lr.ph15
  %indvars.iv18 = phi i64 [ 0, %.lr.ph15.preheader ], [ %indvars.iv.next19, %.lr.ph15 ]
  %38 = getelementptr inbounds nuw %struct.Elf32_Shdr, ptr %9, i64 %indvars.iv18
  %39 = load i32, ptr %38, align 4, !tbaa !86
  %40 = tail call i32 @llvm.bswap.i32(i32 %39)
  store i32 %40, ptr %38, align 4, !tbaa !86
  %41 = getelementptr inbounds nuw i8, ptr %38, i64 4
  %42 = load i32, ptr %41, align 4, !tbaa !29
  %43 = tail call i32 @llvm.bswap.i32(i32 %42)
  store i32 %43, ptr %41, align 4, !tbaa !29
  %44 = getelementptr inbounds nuw i8, ptr %38, i64 8
  %45 = load i32, ptr %44, align 4, !tbaa !87
  %46 = tail call i32 @llvm.bswap.i32(i32 %45)
  store i32 %46, ptr %44, align 4, !tbaa !87
  %47 = getelementptr inbounds nuw i8, ptr %38, i64 12
  %48 = load i32, ptr %47, align 4, !tbaa !88
  %49 = tail call i32 @llvm.bswap.i32(i32 %48)
  store i32 %49, ptr %47, align 4, !tbaa !88
  %50 = getelementptr inbounds nuw i8, ptr %38, i64 16
  %51 = load i32, ptr %50, align 4, !tbaa !45
  %52 = tail call i32 @llvm.bswap.i32(i32 %51)
  store i32 %52, ptr %50, align 4, !tbaa !45
  %53 = getelementptr inbounds nuw i8, ptr %38, i64 20
  %54 = load i32, ptr %53, align 4, !tbaa !46
  %55 = tail call i32 @llvm.bswap.i32(i32 %54)
  store i32 %55, ptr %53, align 4, !tbaa !46
  %56 = getelementptr inbounds nuw i8, ptr %38, i64 24
  %57 = load i32, ptr %56, align 4, !tbaa !89
  %58 = tail call i32 @llvm.bswap.i32(i32 %57)
  store i32 %58, ptr %56, align 4, !tbaa !89
  %59 = getelementptr inbounds nuw i8, ptr %38, i64 28
  %60 = load i32, ptr %59, align 4, !tbaa !90
  %61 = tail call i32 @llvm.bswap.i32(i32 %60)
  store i32 %61, ptr %59, align 4, !tbaa !90
  %62 = getelementptr inbounds nuw i8, ptr %38, i64 32
  %63 = load i32, ptr %62, align 4, !tbaa !91
  %64 = tail call i32 @llvm.bswap.i32(i32 %63)
  store i32 %64, ptr %62, align 4, !tbaa !91
  %65 = getelementptr inbounds nuw i8, ptr %38, i64 36
  %66 = load i32, ptr %65, align 4, !tbaa !92
  %67 = tail call i32 @llvm.bswap.i32(i32 %66)
  store i32 %67, ptr %65, align 4, !tbaa !92
  %indvars.iv.next19 = add nuw nsw i64 %indvars.iv18, 1
  %exitcond22.not = icmp eq i64 %indvars.iv.next19, %wide.trip.count21
  br i1 %exitcond22.not, label %._crit_edge, label %.lr.ph15, !llvm.loop !93

._crit_edge:                                      ; preds = %.lr.ph15, %.preheader
  ret void
}